; Function Attrs: mustprogress nounwind uwtable
define internal noundef zeroext i1 @"_ZNSt17_Function_handlerIFbPKN4llvm8ConstantEEZNS0_14CombinerHelper16matchUDivByConstERNS0_12MachineInstrEE3$_0E9_M_invokeERKSt9_Any_dataOS3_"(ptr nocapture nonnull readnone align 8 %0, ptr nocapture noundef nonnull readonly align 8 dereferenceable(8) %1) #0 align 2 {
  %.val = load ptr, ptr %1, align 8
  %.not.i.i.i = icmp eq ptr %.val, null
  br i1 %.not.i.i.i, label %"_ZSt10__invoke_rIbRZN4llvm14CombinerHelper16matchUDivByConstERNS0_12MachineInstrEE3$_0JPKNS0_8ConstantEEENSt9enable_ifIX16is_invocable_r_vIT_T0_DpT1_EESA_E4typeEOSB_DpOSC_.exit", label %3

3:                                                ; preds = %2
  %4 = tail call noundef zeroext i1 @_ZNK4llvm8Constant11isNullValueEv(ptr noundef nonnull align 8 dereferenceable(24) %.val) #27
  %5 = xor i1 %4, true
  br label %"_ZSt10__invoke_rIbRZN4llvm14CombinerHelper16matchUDivByConstERNS0_12MachineInstrEE3$_0JPKNS0_8ConstantEEENSt9enable_ifIX16is_invocable_r_vIT_T0_DpT1_EESA_E4typeEOSB_DpOSC_.exit"

"_ZSt10__invoke_rIbRZN4llvm14CombinerHelper16matchUDivByConstERNS0_12MachineInstrEE3$_0JPKNS0_8ConstantEEENSt9enable_ifIX16is_invocable_r_vIT_T0_DpT1_EESA_E4typeEOSB_DpOSC_.exit": ; preds = %2, %3
  %6 = phi i1 [ false, %2 ], [ %5, %3 ]
  ret i1 %6
}